; ModuleID = '39/178.c'
source_filename = "39/178.c"
target datalayout = "e-m:e-p270:32:32-p271:32:32-p272:64:64-i64:64-f80:128-n8:16:32:64-S128"
target triple = "x86_64-pc-linux-gnu"

%struct.student = type { [20 x i8], [2 x i32], i8, i8, i32, i32 }

@.str = private unnamed_addr constant [3 x i8] c"%d\00", align 1
@.str.1 = private unnamed_addr constant [18 x i8] c"%s %d %d %c %c %d\00", align 1
@stu = common dso_local global [100 x %struct.student] zeroinitializer, align 16
@.str.2 = private unnamed_addr constant [7 x i8] c"%s\0A%d\0A\00", align 1

; Function Attrs: noinline nounwind uwtable
define dso_local void @main() #0 {
  %1 = alloca i32, align 4
  %2 = alloca i32, align 4
  %3 = alloca i32, align 4
  %4 = alloca i32, align 4
  %5 = alloca i32, align 4
  store i32 0, i32* %5, align 4
  %6 = call i32 (i8*, ...) @__isoc99_scanf(i8* getelementptr inbounds ([3 x i8], [3 x i8]* @.str, i64 0, i64 0), i32* %1)
  store i32 0, i32* %2, align 4
  br label %7

7:                                                ; preds = %157, %0
  %8 = load i32, i32* %2, align 4
  %9 = load i32, i32* %1, align 4
  %10 = icmp slt i32 %8, %9
  br i1 %10, label %11, label %160

11:                                               ; preds = %7
  %12 = load i32, i32* %2, align 4
  %13 = sext i32 %12 to i64
  %14 = getelementptr inbounds [100 x %struct.student], [100 x %struct.student]* @stu, i64 0, i64 %13
  %15 = getelementptr inbounds %struct.student, %struct.student* %14, i32 0, i32 0
  %16 = getelementptr inbounds [20 x i8], [20 x i8]* %15, i64 0, i64 0
  %17 = load i32, i32* %2, align 4
  %18 = sext i32 %17 to i64
  %19 = getelementptr inbounds [100 x %struct.student], [100 x %struct.student]* @stu, i64 0, i64 %18
  %20 = getelementptr inbounds %struct.student, %struct.student* %19, i32 0, i32 1
  %21 = getelementptr inbounds [2 x i32], [2 x i32]* %20, i64 0, i64 0
  %22 = load i32, i32* %2, align 4
  %23 = sext i32 %22 to i64
  %24 = getelementptr inbounds [100 x %struct.student], [100 x %struct.student]* @stu, i64 0, i64 %23
  %25 = getelementptr inbounds %struct.student, %struct.student* %24, i32 0, i32 1
  %26 = getelementptr inbounds [2 x i32], [2 x i32]* %25, i64 0, i64 1
  %27 = load i32, i32* %2, align 4
  %28 = sext i32 %27 to i64
  %29 = getelementptr inbounds [100 x %struct.student], [100 x %struct.student]* @stu, i64 0, i64 %28
  %30 = getelementptr inbounds %struct.student, %struct.student* %29, i32 0, i32 2
  %31 = load i32, i32* %2, align 4
  %32 = sext i32 %31 to i64
  %33 = getelementptr inbounds [100 x %struct.student], [100 x %struct.student]* @stu, i64 0, i64 %32
  %34 = getelementptr inbounds %struct.student, %struct.student* %33, i32 0, i32 3
  %35 = load i32, i32* %2, align 4
  %36 = sext i32 %35 to i64
  %37 = getelementptr inbounds [100 x %struct.student], [100 x %struct.student]* @stu, i64 0, i64 %36
  %38 = getelementptr inbounds %struct.student, %struct.student* %37, i32 0, i32 4
  %39 = call i32 (i8*, ...) @__isoc99_scanf(i8* getelementptr inbounds ([18 x i8], [18 x i8]* @.str.1, i64 0, i64 0), i8* %16, i32* %21, i32* %26, i8* %30, i8* %34, i32* %38)
  %40 = load i32, i32* %2, align 4
  %41 = sext i32 %40 to i64
  %42 = getelementptr inbounds [100 x %struct.student], [100 x %struct.student]* @stu, i64 0, i64 %41
  %43 = getelementptr inbounds %struct.student, %struct.student* %42, i32 0, i32 5
  store i32 0, i32* %43, align 4
  %44 = load i32, i32* %2, align 4
  %45 = sext i32 %44 to i64
  %46 = getelementptr inbounds [100 x %struct.student], [100 x %struct.student]* @stu, i64 0, i64 %45
  %47 = getelementptr inbounds %struct.student, %struct.student* %46, i32 0, i32 1
  %48 = getelementptr inbounds [2 x i32], [2 x i32]* %47, i64 0, i64 0
  %49 = load i32, i32* %48, align 4
  %50 = icmp sgt i32 %49, 80
  br i1 %50, label %51, label %65

51:                                               ; preds = %11
  %52 = load i32, i32* %2, align 4
  %53 = sext i32 %52 to i64
  %54 = getelementptr inbounds [100 x %struct.student], [100 x %struct.student]* @stu, i64 0, i64 %53
  %55 = getelementptr inbounds %struct.student, %struct.student* %54, i32 0, i32 4
  %56 = load i32, i32* %55, align 8
  %57 = icmp sge i32 %56, 1
  br i1 %57, label %58, label %65

58:                                               ; preds = %51
  %59 = load i32, i32* %2, align 4
  %60 = sext i32 %59 to i64
  %61 = getelementptr inbounds [100 x %struct.student], [100 x %struct.student]* @stu, i64 0, i64 %60
  %62 = getelementptr inbounds %struct.student, %struct.student* %61, i32 0, i32 5
  %63 = load i32, i32* %62, align 4
  %64 = add nsw i32 %63, 8000
  store i32 %64, i32* %62, align 4
  br label %65

65:                                               ; preds = %58, %51, %11
  %66 = load i32, i32* %2, align 4
  %67 = sext i32 %66 to i64
  %68 = getelementptr inbounds [100 x %struct.student], [100 x %struct.student]* @stu, i64 0, i64 %67
  %69 = getelementptr inbounds %struct.student, %struct.student* %68, i32 0, i32 1
  %70 = getelementptr inbounds [2 x i32], [2 x i32]* %69, i64 0, i64 0
  %71 = load i32, i32* %70, align 4
  %72 = icmp sgt i32 %71, 85
  br i1 %72, label %73, label %88

73:                                               ; preds = %65
  %74 = load i32, i32* %2, align 4
  %75 = sext i32 %74 to i64
  %76 = getelementptr inbounds [100 x %struct.student], [100 x %struct.student]* @stu, i64 0, i64 %75
  %77 = getelementptr inbounds %struct.student, %struct.student* %76, i32 0, i32 1
  %78 = getelementptr inbounds [2 x i32], [2 x i32]* %77, i64 0, i64 1
  %79 = load i32, i32* %78, align 4
  %80 = icmp sgt i32 %79, 80
  br i1 %80, label %81, label %88

81:                                               ; preds = %73
  %82 = load i32, i32* %2, align 4
  %83 = sext i32 %82 to i64
  %84 = getelementptr inbounds [100 x %struct.student], [100 x %struct.student]* @stu, i64 0, i64 %83
  %85 = getelementptr inbounds %struct.student, %struct.student* %84, i32 0, i32 5
  %86 = load i32, i32* %85, align 4
  %87 = add nsw i32 %86, 4000
  store i32 %87, i32* %85, align 4
  br label %88

88:                                               ; preds = %81, %73, %65
  %89 = load i32, i32* %2, align 4
  %90 = sext i32 %89 to i64
  %91 = getelementptr inbounds [100 x %struct.student], [100 x %struct.student]* @stu, i64 0, i64 %90
  %92 = getelementptr inbounds %struct.student, %struct.student* %91, i32 0, i32 1
  %93 = getelementptr inbounds [2 x i32], [2 x i32]* %92, i64 0, i64 0
  %94 = load i32, i32* %93, align 4
  %95 = icmp sgt i32 %94, 90
  br i1 %95, label %96, label %103

96:                                               ; preds = %88
  %97 = load i32, i32* %2, align 4
  %98 = sext i32 %97 to i64
  %99 = getelementptr inbounds [100 x %struct.student], [100 x %struct.student]* @stu, i64 0, i64 %98
  %100 = getelementptr inbounds %struct.student, %struct.student* %99, i32 0, i32 5
  %101 = load i32, i32* %100, align 4
  %102 = add nsw i32 %101, 2000
  store i32 %102, i32* %100, align 4
  br label %103

103:                                              ; preds = %96, %88
  %104 = load i32, i32* %2, align 4
  %105 = sext i32 %104 to i64
  %106 = getelementptr inbounds [100 x %struct.student], [100 x %struct.student]* @stu, i64 0, i64 %105
  %107 = getelementptr inbounds %struct.student, %struct.student* %106, i32 0, i32 1
  %108 = getelementptr inbounds [2 x i32], [2 x i32]* %107, i64 0, i64 0
  %109 = load i32, i32* %108, align 4
  %110 = icmp sgt i32 %109, 85
  br i1 %110, label %111, label %126

111:                                              ; preds = %103
  %112 = load i32, i32* %2, align 4
  %113 = sext i32 %112 to i64
  %114 = getelementptr inbounds [100 x %struct.student], [100 x %struct.student]* @stu, i64 0, i64 %113
  %115 = getelementptr inbounds %struct.student, %struct.student* %114, i32 0, i32 3
  %116 = load i8, i8* %115, align 1
  %117 = sext i8 %116 to i32
  %118 = icmp eq i32 %117, 89
  br i1 %118, label %119, label %126

119:                                              ; preds = %111
  %120 = load i32, i32* %2, align 4
  %121 = sext i32 %120 to i64
  %122 = getelementptr inbounds [100 x %struct.student], [100 x %struct.student]* @stu, i64 0, i64 %121
  %123 = getelementptr inbounds %struct.student, %struct.student* %122, i32 0, i32 5
  %124 = load i32, i32* %123, align 4
  %125 = add nsw i32 %124, 1000
  store i32 %125, i32* %123, align 4
  br label %126

126:                                              ; preds = %119, %111, %103
  %127 = load i32, i32* %2, align 4
  %128 = sext i32 %127 to i64
  %129 = getelementptr inbounds [100 x %struct.student], [100 x %struct.student]* @stu, i64 0, i64 %128
  %130 = getelementptr inbounds %struct.student, %struct.student* %129, i32 0, i32 1
  %131 = getelementptr inbounds [2 x i32], [2 x i32]* %130, i64 0, i64 1
  %132 = load i32, i32* %131, align 4
  %133 = icmp sgt i32 %132, 80
  br i1 %133, label %134, label %149

134:                                              ; preds = %126
  %135 = load i32, i32* %2, align 4
  %136 = sext i32 %135 to i64
  %137 = getelementptr inbounds [100 x %struct.student], [100 x %struct.student]* @stu, i64 0, i64 %136
  %138 = getelementptr inbounds %struct.student, %struct.student* %137, i32 0, i32 2
  %139 = load i8, i8* %138, align 4
  %140 = sext i8 %139 to i32
  %141 = icmp eq i32 %140, 89
  br i1 %141, label %142, label %149

142:                                              ; preds = %134
  %143 = load i32, i32* %2, align 4
  %144 = sext i32 %143 to i64
  %145 = getelementptr inbounds [100 x %struct.student], [100 x %struct.student]* @stu, i64 0, i64 %144
  %146 = getelementptr inbounds %struct.student, %struct.student* %145, i32 0, i32 5
  %147 = load i32, i32* %146, align 4
  %148 = add nsw i32 %147, 850
  store i32 %148, i32* %146, align 4
  br label %149

149:                                              ; preds = %142, %134, %126
  %150 = load i32, i32* %2, align 4
  %151 = sext i32 %150 to i64
  %152 = getelementptr inbounds [100 x %struct.student], [100 x %struct.student]* @stu, i64 0, i64 %151
  %153 = getelementptr inbounds %struct.student, %struct.student* %152, i32 0, i32 5
  %154 = load i32, i32* %153, align 4
  %155 = load i32, i32* %5, align 4
  %156 = add nsw i32 %155, %154
  store i32 %156, i32* %5, align 4
  br label %157

157:                                              ; preds = %149
  %158 = load i32, i32* %2, align 4
  %159 = add nsw i32 %158, 1
  store i32 %159, i32* %2, align 4
  br label %7

160:                                              ; preds = %7
  %161 = load i32, i32* getelementptr inbounds ([100 x %struct.student], [100 x %struct.student]* @stu, i64 0, i64 0, i32 5), align 4
  store i32 %161, i32* %4, align 4
  store i32 1, i32* %2, align 4
  br label %162

162:                                              ; preds = %182, %160
  %163 = load i32, i32* %2, align 4
  %164 = load i32, i32* %1, align 4
  %165 = icmp slt i32 %163, %164
  br i1 %165, label %166, label %185

166:                                              ; preds = %162
  %167 = load i32, i32* %2, align 4
  %168 = sext i32 %167 to i64
  %169 = getelementptr inbounds [100 x %struct.student], [100 x %struct.student]* @stu, i64 0, i64 %168
  %170 = getelementptr inbounds %struct.student, %struct.student* %169, i32 0, i32 5
  %171 = load i32, i32* %170, align 4
  %172 = load i32, i32* %4, align 4
  %173 = icmp sgt i32 %171, %172
  br i1 %173, label %174, label %181

174:                                              ; preds = %166
  %175 = load i32, i32* %2, align 4
  %176 = sext i32 %175 to i64
  %177 = getelementptr inbounds [100 x %struct.student], [100 x %struct.student]* @stu, i64 0, i64 %176
  %178 = getelementptr inbounds %struct.student, %struct.student* %177, i32 0, i32 5
  %179 = load i32, i32* %178, align 4
  store i32 %179, i32* %4, align 4
  %180 = load i32, i32* %2, align 4
  store i32 %180, i32* %3, align 4
  br label %181

181:                                              ; preds = %174, %166
  br label %182

182:                                              ; preds = %181
  %183 = load i32, i32* %2, align 4
  %184 = add nsw i32 %183, 1
  store i32 %184, i32* %2, align 4
  br label %162

185:                                              ; preds = %162
  %186 = load i32, i32* %3, align 4
  %187 = sext i32 %186 to i64
  %188 = getelementptr inbounds [100 x %struct.student], [100 x %struct.student]* @stu, i64 0, i64 %187
  %189 = getelementptr inbounds %struct.student, %struct.student* %188, i32 0, i32 0
  %190 = getelementptr inbounds [20 x i8], [20 x i8]* %189, i64 0, i64 0
  %191 = load i32, i32* %3, align 4
  %192 = sext i32 %191 to i64
  %193 = getelementptr inbounds [100 x %struct.student], [100 x %struct.student]* @stu, i64 0, i64 %192
  %194 = getelementptr inbounds %struct.student, %struct.student* %193, i32 0, i32 5
  %195 = load i32, i32* %194, align 4
  %196 = call i32 (i8*, ...) @printf(i8* getelementptr inbounds ([7 x i8], [7 x i8]* @.str.2, i64 0, i64 0), i8* %190, i32 %195)
  %197 = load i32, i32* %5, align 4
  %198 = call i32 (i8*, ...) @printf(i8* getelementptr inbounds ([3 x i8], [3 x i8]* @.str, i64 0, i64 0), i32 %197)
  ret void
}

declare dso_local i32 @__isoc99_scanf(i8*, ...) #1

declare dso_local i32 @printf(i8*, ...) #1


!llvm.module.flags = !{!0}
!llvm.ident = !{!1}

!0 = !{i32 1, !"wchar_size", i32 4}
!1 = !{!"clang version 10.0.0-4ubuntu1 "}
